target datalayout = "e-m:e-p270:32:32-p271:32:32-p272:64:64-i64:64-i128:128-f80:128-n8:16:32:64-S128"
target triple = "x86_64-pc-linux-gnu"

@.str.65 = private unnamed_addr constant [21 x i8] c"Unknown pixel format\00", align 1

; Function Attrs: nounwind uwtable
define hidden zeroext i1 @SDL_GetMasksForPixelFormat_REAL(i32 noundef %0, ptr noundef %1, ptr noundef %2, ptr noundef %3, ptr noundef %4, ptr noundef %5) #0 {
  %7 = alloca i1, align 1
  %8 = alloca i32, align 4
  %9 = alloca ptr, align 8
  %10 = alloca ptr, align 8
  %11 = alloca ptr, align 8
  %12 = alloca ptr, align 8
  %13 = alloca ptr, align 8
  %14 = alloca [4 x i32], align 16
  %15 = alloca i32, align 4
  store i32 %0, ptr %8, align 4
  store ptr %1, ptr %9, align 8
  store ptr %2, ptr %10, align 8
  store ptr %3, ptr %11, align 8
  store ptr %4, ptr %12, align 8
  store ptr %5, ptr %13, align 8
  call void @llvm.lifetime.start.p0(i64 16, ptr %14) #7
  %16 = load i32, ptr %8, align 4
  %17 = icmp ne i32 %16, 0
  br i1 %17, label %18, label %34

18:                                               ; preds = %6
  %19 = load i32, ptr %8, align 4
  %20 = lshr i32 %19, 28
  %21 = and i32 %20, 15
  %22 = icmp ne i32 %21, 1
  br i1 %22, label %23, label %34

23:                                               ; preds = %18
  %24 = load ptr, ptr %13, align 8
  store i32 0, ptr %24, align 4
  %25 = load ptr, ptr %12, align 8
  store i32 0, ptr %25, align 4
  %26 = load ptr, ptr %11, align 8
  store i32 0, ptr %26, align 4
  %27 = load ptr, ptr %10, align 8
  store i32 0, ptr %27, align 4
  %28 = load i32, ptr %8, align 4
  switch i32 %28, label %31 [
    i32 844715353, label %29
    i32 1498831189, label %29
    i32 1431918169, label %29
  ]

29:                                               ; preds = %23, %23, %23
  %30 = load ptr, ptr %9, align 8
  store i32 32, ptr %30, align 4
  br label %33

31:                                               ; preds = %23
  %32 = load ptr, ptr %9, align 8
  store i32 0, ptr %32, align 4
  br label %33

33:                                               ; preds = %31, %29
  store i1 true, ptr %7, align 1
  store i32 1, ptr %15, align 4
  br label %290

34:                                               ; preds = %18, %6
  %35 = load i32, ptr %8, align 4
  %36 = icmp ne i32 %35, 0
  br i1 %36, label %37, label %57

37:                                               ; preds = %34
  %38 = load i32, ptr %8, align 4
  %39 = lshr i32 %38, 28
  %40 = and i32 %39, 15
  %41 = icmp ne i32 %40, 1
  br i1 %41, label %42, label %57

42:                                               ; preds = %37
  %43 = load i32, ptr %8, align 4
  %44 = icmp eq i32 %43, 844715353
  br i1 %44, label %54, label %45

45:                                               ; preds = %42
  %46 = load i32, ptr %8, align 4
  %47 = icmp eq i32 %46, 1498831189
  br i1 %47, label %54, label %48

48:                                               ; preds = %45
  %49 = load i32, ptr %8, align 4
  %50 = icmp eq i32 %49, 1431918169
  br i1 %50, label %54, label %51

51:                                               ; preds = %48
  %52 = load i32, ptr %8, align 4
  %53 = icmp eq i32 %52, 808530000
  br label %54

54:                                               ; preds = %51, %48, %45, %42
  %55 = phi i1 [ true, %48 ], [ true, %45 ], [ true, %42 ], [ %53, %51 ]
  %56 = select i1 %55, i32 2, i32 1
  br label %61

57:                                               ; preds = %37, %34
  %58 = load i32, ptr %8, align 4
  %59 = lshr i32 %58, 0
  %60 = and i32 %59, 255
  br label %61

61:                                               ; preds = %57, %54
  %62 = phi i32 [ %56, %54 ], [ %60, %57 ]
  %63 = icmp ule i32 %62, 2
  br i1 %63, label %64, label %80

64:                                               ; preds = %61
  %65 = load i32, ptr %8, align 4
  %66 = icmp ne i32 %65, 0
  br i1 %66, label %67, label %73

67:                                               ; preds = %64
  %68 = load i32, ptr %8, align 4
  %69 = lshr i32 %68, 28
  %70 = and i32 %69, 15
  %71 = icmp ne i32 %70, 1
  br i1 %71, label %72, label %73

72:                                               ; preds = %67
  br label %77

73:                                               ; preds = %67, %64
  %74 = load i32, ptr %8, align 4
  %75 = lshr i32 %74, 8
  %76 = and i32 %75, 255
  br label %77

77:                                               ; preds = %73, %72
  %78 = phi i32 [ 0, %72 ], [ %76, %73 ]
  %79 = load ptr, ptr %9, align 8
  store i32 %78, ptr %79, align 4
  br label %111

80:                                               ; preds = %61
  %81 = load i32, ptr %8, align 4
  %82 = icmp ne i32 %81, 0
  br i1 %82, label %83, label %103

83:                                               ; preds = %80
  %84 = load i32, ptr %8, align 4
  %85 = lshr i32 %84, 28
  %86 = and i32 %85, 15
  %87 = icmp ne i32 %86, 1
  br i1 %87, label %88, label %103

88:                                               ; preds = %83
  %89 = load i32, ptr %8, align 4
  %90 = icmp eq i32 %89, 844715353
  br i1 %90, label %100, label %91

91:                                               ; preds = %88
  %92 = load i32, ptr %8, align 4
  %93 = icmp eq i32 %92, 1498831189
  br i1 %93, label %100, label %94

94:                                               ; preds = %91
  %95 = load i32, ptr %8, align 4
  %96 = icmp eq i32 %95, 1431918169
  br i1 %96, label %100, label %97

97:                                               ; preds = %94
  %98 = load i32, ptr %8, align 4
  %99 = icmp eq i32 %98, 808530000
  br label %100

100:                                              ; preds = %97, %94, %91, %88
  %101 = phi i1 [ true, %94 ], [ true, %91 ], [ true, %88 ], [ %99, %97 ]
  %102 = select i1 %101, i32 2, i32 1
  br label %107

103:                                              ; preds = %83, %80
  %104 = load i32, ptr %8, align 4
  %105 = lshr i32 %104, 0
  %106 = and i32 %105, 255
  br label %107

107:                                              ; preds = %103, %100
  %108 = phi i32 [ %102, %100 ], [ %106, %103 ]
  %109 = mul i32 %108, 8
  %110 = load ptr, ptr %9, align 8
  store i32 %109, ptr %110, align 4
  br label %111

111:                                              ; preds = %107, %77
  %112 = load ptr, ptr %13, align 8
  store i32 0, ptr %112, align 4
  %113 = load ptr, ptr %12, align 8
  store i32 0, ptr %113, align 4
  %114 = load ptr, ptr %11, align 8
  store i32 0, ptr %114, align 4
  %115 = load ptr, ptr %10, align 8
  store i32 0, ptr %115, align 4
  %116 = load i32, ptr %8, align 4
  %117 = icmp eq i32 %116, 386930691
  br i1 %117, label %118, label %122

118:                                              ; preds = %111
  %119 = load ptr, ptr %10, align 8
  store i32 255, ptr %119, align 4
  %120 = load ptr, ptr %11, align 8
  store i32 65280, ptr %120, align 4
  %121 = load ptr, ptr %12, align 8
  store i32 16711680, ptr %121, align 4
  store i1 true, ptr %7, align 1
  store i32 1, ptr %15, align 4
  br label %290

122:                                              ; preds = %111
  %123 = load i32, ptr %8, align 4
  %124 = icmp eq i32 %123, 390076419
  br i1 %124, label %125, label %129

125:                                              ; preds = %122
  %126 = load ptr, ptr %10, align 8
  store i32 16711680, ptr %126, align 4
  %127 = load ptr, ptr %11, align 8
  store i32 65280, ptr %127, align 4
  %128 = load ptr, ptr %12, align 8
  store i32 255, ptr %128, align 4
  store i1 true, ptr %7, align 1
  store i32 1, ptr %15, align 4
  br label %290

129:                                              ; preds = %122
  %130 = load i32, ptr %8, align 4
  %131 = lshr i32 %130, 24
  %132 = and i32 %131, 15
  %133 = icmp ne i32 %132, 4
  br i1 %133, label %134, label %145

134:                                              ; preds = %129
  %135 = load i32, ptr %8, align 4
  %136 = lshr i32 %135, 24
  %137 = and i32 %136, 15
  %138 = icmp ne i32 %137, 5
  br i1 %138, label %139, label %145

139:                                              ; preds = %134
  %140 = load i32, ptr %8, align 4
  %141 = lshr i32 %140, 24
  %142 = and i32 %141, 15
  %143 = icmp ne i32 %142, 6
  br i1 %143, label %144, label %145

144:                                              ; preds = %139
  store i1 true, ptr %7, align 1
  store i32 1, ptr %15, align 4
  br label %290

145:                                              ; preds = %139, %134, %129
  %146 = load i32, ptr %8, align 4
  %147 = lshr i32 %146, 16
  %148 = and i32 %147, 15
  switch i32 %148, label %189 [
    i32 1, label %149
    i32 2, label %154
    i32 3, label %159
    i32 4, label %164
    i32 5, label %169
    i32 6, label %174
    i32 7, label %179
    i32 8, label %184
  ]

149:                                              ; preds = %145
  %150 = getelementptr inbounds [4 x i32], ptr %14, i64 0, i64 0
  store i32 0, ptr %150, align 16
  %151 = getelementptr inbounds [4 x i32], ptr %14, i64 0, i64 1
  store i32 224, ptr %151, align 4
  %152 = getelementptr inbounds [4 x i32], ptr %14, i64 0, i64 2
  store i32 28, ptr %152, align 8
  %153 = getelementptr inbounds [4 x i32], ptr %14, i64 0, i64 3
  store i32 3, ptr %153, align 4
  br label %191

154:                                              ; preds = %145
  %155 = getelementptr inbounds [4 x i32], ptr %14, i64 0, i64 0
  store i32 61440, ptr %155, align 16
  %156 = getelementptr inbounds [4 x i32], ptr %14, i64 0, i64 1
  store i32 3840, ptr %156, align 4
  %157 = getelementptr inbounds [4 x i32], ptr %14, i64 0, i64 2
  store i32 240, ptr %157, align 8
  %158 = getelementptr inbounds [4 x i32], ptr %14, i64 0, i64 3
  store i32 15, ptr %158, align 4
  br label %191

159:                                              ; preds = %145
  %160 = getelementptr inbounds [4 x i32], ptr %14, i64 0, i64 0
  store i32 32768, ptr %160, align 16
  %161 = getelementptr inbounds [4 x i32], ptr %14, i64 0, i64 1
  store i32 31744, ptr %161, align 4
  %162 = getelementptr inbounds [4 x i32], ptr %14, i64 0, i64 2
  store i32 992, ptr %162, align 8
  %163 = getelementptr inbounds [4 x i32], ptr %14, i64 0, i64 3
  store i32 31, ptr %163, align 4
  br label %191

164:                                              ; preds = %145
  %165 = getelementptr inbounds [4 x i32], ptr %14, i64 0, i64 0
  store i32 63488, ptr %165, align 16
  %166 = getelementptr inbounds [4 x i32], ptr %14, i64 0, i64 1
  store i32 1984, ptr %166, align 4
  %167 = getelementptr inbounds [4 x i32], ptr %14, i64 0, i64 2
  store i32 62, ptr %167, align 8
  %168 = getelementptr inbounds [4 x i32], ptr %14, i64 0, i64 3
  store i32 1, ptr %168, align 4
  br label %191

169:                                              ; preds = %145
  %170 = getelementptr inbounds [4 x i32], ptr %14, i64 0, i64 0
  store i32 0, ptr %170, align 16
  %171 = getelementptr inbounds [4 x i32], ptr %14, i64 0, i64 1
  store i32 63488, ptr %171, align 4
  %172 = getelementptr inbounds [4 x i32], ptr %14, i64 0, i64 2
  store i32 2016, ptr %172, align 8
  %173 = getelementptr inbounds [4 x i32], ptr %14, i64 0, i64 3
  store i32 31, ptr %173, align 4
  br label %191

174:                                              ; preds = %145
  %175 = getelementptr inbounds [4 x i32], ptr %14, i64 0, i64 0
  store i32 -16777216, ptr %175, align 16
  %176 = getelementptr inbounds [4 x i32], ptr %14, i64 0, i64 1
  store i32 16711680, ptr %176, align 4
  %177 = getelementptr inbounds [4 x i32], ptr %14, i64 0, i64 2
  store i32 65280, ptr %177, align 8
  %178 = getelementptr inbounds [4 x i32], ptr %14, i64 0, i64 3
  store i32 255, ptr %178, align 4
  br label %191

179:                                              ; preds = %145
  %180 = getelementptr inbounds [4 x i32], ptr %14, i64 0, i64 0
  store i32 -1073741824, ptr %180, align 16
  %181 = getelementptr inbounds [4 x i32], ptr %14, i64 0, i64 1
  store i32 1072693248, ptr %181, align 4
  %182 = getelementptr inbounds [4 x i32], ptr %14, i64 0, i64 2
  store i32 1047552, ptr %182, align 8
  %183 = getelementptr inbounds [4 x i32], ptr %14, i64 0, i64 3
  store i32 1023, ptr %183, align 4
  br label %191

184:                                              ; preds = %145
  %185 = getelementptr inbounds [4 x i32], ptr %14, i64 0, i64 0
  store i32 -4194304, ptr %185, align 16
  %186 = getelementptr inbounds [4 x i32], ptr %14, i64 0, i64 1
  store i32 4190208, ptr %186, align 4
  %187 = getelementptr inbounds [4 x i32], ptr %14, i64 0, i64 2
  store i32 4092, ptr %187, align 8
  %188 = getelementptr inbounds [4 x i32], ptr %14, i64 0, i64 3
  store i32 3, ptr %188, align 4
  br label %191

189:                                              ; preds = %145
  %190 = call zeroext i1 (ptr, ...) @SDL_SetError_REAL(ptr noundef @.str.65)
  store i1 %190, ptr %7, align 1
  store i32 1, ptr %15, align 4
  br label %290

191:                                              ; preds = %184, %179, %174, %169, %164, %159, %154, %149
  %192 = load i32, ptr %8, align 4
  %193 = lshr i32 %192, 20
  %194 = and i32 %193, 15
  switch i32 %194, label %287 [
    i32 1, label %195
    i32 2, label %205
    i32 3, label %215
    i32 4, label %228
    i32 5, label %241
    i32 6, label %251
    i32 8, label %261
    i32 7, label %274
  ]

195:                                              ; preds = %191
  %196 = getelementptr inbounds [4 x i32], ptr %14, i64 0, i64 1
  %197 = load i32, ptr %196, align 4
  %198 = load ptr, ptr %10, align 8
  store i32 %197, ptr %198, align 4
  %199 = getelementptr inbounds [4 x i32], ptr %14, i64 0, i64 2
  %200 = load i32, ptr %199, align 8
  %201 = load ptr, ptr %11, align 8
  store i32 %200, ptr %201, align 4
  %202 = getelementptr inbounds [4 x i32], ptr %14, i64 0, i64 3
  %203 = load i32, ptr %202, align 4
  %204 = load ptr, ptr %12, align 8
  store i32 %203, ptr %204, align 4
  br label %289

205:                                              ; preds = %191
  %206 = getelementptr inbounds [4 x i32], ptr %14, i64 0, i64 0
  %207 = load i32, ptr %206, align 16
  %208 = load ptr, ptr %10, align 8
  store i32 %207, ptr %208, align 4
  %209 = getelementptr inbounds [4 x i32], ptr %14, i64 0, i64 1
  %210 = load i32, ptr %209, align 4
  %211 = load ptr, ptr %11, align 8
  store i32 %210, ptr %211, align 4
  %212 = getelementptr inbounds [4 x i32], ptr %14, i64 0, i64 2
  %213 = load i32, ptr %212, align 8
  %214 = load ptr, ptr %12, align 8
  store i32 %213, ptr %214, align 4
  br label %289

215:                                              ; preds = %191
  %216 = getelementptr inbounds [4 x i32], ptr %14, i64 0, i64 0
  %217 = load i32, ptr %216, align 16
  %218 = load ptr, ptr %13, align 8
  store i32 %217, ptr %218, align 4
  %219 = getelementptr inbounds [4 x i32], ptr %14, i64 0, i64 1
  %220 = load i32, ptr %219, align 4
  %221 = load ptr, ptr %10, align 8
  store i32 %220, ptr %221, align 4
  %222 = getelementptr inbounds [4 x i32], ptr %14, i64 0, i64 2
  %223 = load i32, ptr %222, align 8
  %224 = load ptr, ptr %11, align 8
  store i32 %223, ptr %224, align 4
  %225 = getelementptr inbounds [4 x i32], ptr %14, i64 0, i64 3
  %226 = load i32, ptr %225, align 4
  %227 = load ptr, ptr %12, align 8
  store i32 %226, ptr %227, align 4
  br label %289

228:                                              ; preds = %191
  %229 = getelementptr inbounds [4 x i32], ptr %14, i64 0, i64 0
  %230 = load i32, ptr %229, align 16
  %231 = load ptr, ptr %10, align 8
  store i32 %230, ptr %231, align 4
  %232 = getelementptr inbounds [4 x i32], ptr %14, i64 0, i64 1
  %233 = load i32, ptr %232, align 4
  %234 = load ptr, ptr %11, align 8
  store i32 %233, ptr %234, align 4
  %235 = getelementptr inbounds [4 x i32], ptr %14, i64 0, i64 2
  %236 = load i32, ptr %235, align 8
  %237 = load ptr, ptr %12, align 8
  store i32 %236, ptr %237, align 4
  %238 = getelementptr inbounds [4 x i32], ptr %14, i64 0, i64 3
  %239 = load i32, ptr %238, align 4
  %240 = load ptr, ptr %13, align 8
  store i32 %239, ptr %240, align 4
  br label %289

241:                                              ; preds = %191
  %242 = getelementptr inbounds [4 x i32], ptr %14, i64 0, i64 1
  %243 = load i32, ptr %242, align 4
  %244 = load ptr, ptr %12, align 8
  store i32 %243, ptr %244, align 4
  %245 = getelementptr inbounds [4 x i32], ptr %14, i64 0, i64 2
  %246 = load i32, ptr %245, align 8
  %247 = load ptr, ptr %11, align 8
  store i32 %246, ptr %247, align 4
  %248 = getelementptr inbounds [4 x i32], ptr %14, i64 0, i64 3
  %249 = load i32, ptr %248, align 4
  %250 = load ptr, ptr %10, align 8
  store i32 %249, ptr %250, align 4
  br label %289

251:                                              ; preds = %191
  %252 = getelementptr inbounds [4 x i32], ptr %14, i64 0, i64 0
  %253 = load i32, ptr %252, align 16
  %254 = load ptr, ptr %12, align 8
  store i32 %253, ptr %254, align 4
  %255 = getelementptr inbounds [4 x i32], ptr %14, i64 0, i64 1
  %256 = load i32, ptr %255, align 4
  %257 = load ptr, ptr %11, align 8
  store i32 %256, ptr %257, align 4
  %258 = getelementptr inbounds [4 x i32], ptr %14, i64 0, i64 2
  %259 = load i32, ptr %258, align 8
  %260 = load ptr, ptr %10, align 8
  store i32 %259, ptr %260, align 4
  br label %289

261:                                              ; preds = %191
  %262 = getelementptr inbounds [4 x i32], ptr %14, i64 0, i64 0
  %263 = load i32, ptr %262, align 16
  %264 = load ptr, ptr %12, align 8
  store i32 %263, ptr %264, align 4
  %265 = getelementptr inbounds [4 x i32], ptr %14, i64 0, i64 1
  %266 = load i32, ptr %265, align 4
  %267 = load ptr, ptr %11, align 8
  store i32 %266, ptr %267, align 4
  %268 = getelementptr inbounds [4 x i32], ptr %14, i64 0, i64 2
  %269 = load i32, ptr %268, align 8
  %270 = load ptr, ptr %10, align 8
  store i32 %269, ptr %270, align 4
  %271 = getelementptr inbounds [4 x i32], ptr %14, i64 0, i64 3
  %272 = load i32, ptr %271, align 4
  %273 = load ptr, ptr %13, align 8
  store i32 %272, ptr %273, align 4
  br label %289

274:                                              ; preds = %191
  %275 = getelementptr inbounds [4 x i32], ptr %14, i64 0, i64 0
  %276 = load i32, ptr %275, align 16
  %277 = load ptr, ptr %13, align 8
  store i32 %276, ptr %277, align 4
  %278 = getelementptr inbounds [4 x i32], ptr %14, i64 0, i64 1
  %279 = load i32, ptr %278, align 4
  %280 = load ptr, ptr %12, align 8
  store i32 %279, ptr %280, align 4
  %281 = getelementptr inbounds [4 x i32], ptr %14, i64 0, i64 2
  %282 = load i32, ptr %281, align 8
  %283 = load ptr, ptr %11, align 8
  store i32 %282, ptr %283, align 4
  %284 = getelementptr inbounds [4 x i32], ptr %14, i64 0, i64 3
  %285 = load i32, ptr %284, align 4
  %286 = load ptr, ptr %10, align 8
  store i32 %285, ptr %286, align 4
  br label %289

287:                                              ; preds = %191
  %288 = call zeroext i1 (ptr, ...) @SDL_SetError_REAL(ptr noundef @.str.65)
  store i1 %288, ptr %7, align 1
  store i32 1, ptr %15, align 4
  br label %290

289:                                              ; preds = %274, %261, %251, %241, %228, %215, %205, %195
  store i1 true, ptr %7, align 1
  store i32 1, ptr %15, align 4
  br label %290

290:                                              ; preds = %289, %287, %189, %144, %125, %118, %33
  call void @llvm.lifetime.end.p0(i64 16, ptr %14) #7
  %291 = load i1, ptr %7, align 1
  ret i1 %291
}