; Function Attrs: nounwind uwtable
define hidden zeroext i1 @SDL_GetMasksForPixelFormat_REAL(i32 noundef %0, ptr noundef writeonly captures(none) initializes((0, 4)) %1, ptr noundef writeonly captures(none) initializes((0, 4)) %2, ptr noundef writeonly captures(none) initializes((0, 4)) %3, ptr noundef writeonly captures(none) initializes((0, 4)) %4, ptr noundef writeonly captures(none) initializes((0, 4)) %5) local_unnamed_addr #1 {
  %.not = icmp eq i32 %0, 0
  %.mask = and i32 %0, -268435456
  %.not106 = icmp eq i32 %.mask, 268435456
  %or.cond117 = or i1 %.not, %.not106
  br i1 %or.cond117, label %10, label %7

7:                                                ; preds = %6
  store i32 0, ptr %5, align 4
  store i32 0, ptr %4, align 4
  store i32 0, ptr %3, align 4
  store i32 0, ptr %2, align 4
  switch i32 %0, label %8 [
    i32 844715353, label %9
    i32 1498831189, label %9
    i32 1431918169, label %9
  ]

8:                                                ; preds = %7
  br label %9

9:                                                ; preds = %7, %7, %7, %8
  %storemerge116 = phi i32 [ 0, %8 ], [ 32, %7 ], [ 32, %7 ], [ 32, %7 ]
  store i32 %storemerge116, ptr %1, align 4
  br label %43

10:                                               ; preds = %6
  %11 = and i32 %0, 255
  %12 = icmp samesign ult i32 %11, 3
  %13 = shl nuw nsw i32 %11, 3
  %14 = lshr i32 %0, 8
  %15 = and i32 %14, 255
  %storemerge = select i1 %12, i32 %15, i32 %13
  store i32 %storemerge, ptr %1, align 4
  store i32 0, ptr %5, align 4
  store i32 0, ptr %4, align 4
  store i32 0, ptr %3, align 4
  store i32 0, ptr %2, align 4
  switch i32 %0, label %18 [
    i32 386930691, label %16
    i32 390076419, label %17
  ]

16:                                               ; preds = %10
  store i32 255, ptr %2, align 4
  store i32 65280, ptr %3, align 4
  store i32 16711680, ptr %4, align 4
  br label %43

17:                                               ; preds = %10
  store i32 16711680, ptr %2, align 4
  store i32 65280, ptr %3, align 4
  store i32 255, ptr %4, align 4
  br label %43

18:                                               ; preds = %10
  %19 = lshr i32 %0, 24
  %20 = and i32 %19, 15
  %.off = add nsw i32 %20, -4
  %switch = icmp ult i32 %.off, 3
  br i1 %switch, label %21, label %43

21:                                               ; preds = %18
  %22 = lshr i32 %0, 16
  %23 = and i32 %22, 15
  %switch.tableidx = add nsw i32 %23, -1
  %24 = icmp ult i32 %switch.tableidx, 8
  br i1 %24, label %switch.lookup, label %25

25:                                               ; preds = %21
  %26 = tail call zeroext i1 (ptr, ...) @SDL_SetError_REAL(ptr noundef nonnull @.str.65) #15
  br label %43

switch.lookup:                                    ; preds = %21
  %27 = zext nneg i32 %switch.tableidx to i64
  %switch.gep = getelementptr inbounds nuw [8 x i32], ptr @switch.table.SDL_GetMasksForPixelFormat_REAL, i64 0, i64 %27
  %switch.load = load i32, ptr %switch.gep, align 4
  %28 = zext nneg i32 %switch.tableidx to i64
  %switch.gep122 = getelementptr inbounds nuw [8 x i32], ptr @switch.table.SDL_GetMasksForPixelFormat_REAL.1, i64 0, i64 %28
  %switch.load123 = load i32, ptr %switch.gep122, align 4
  %29 = zext nneg i32 %switch.tableidx to i64
  %switch.gep124 = getelementptr inbounds nuw [8 x i32], ptr @switch.table.SDL_GetMasksForPixelFormat_REAL.2, i64 0, i64 %29
  %switch.load125 = load i32, ptr %switch.gep124, align 4
  %30 = zext nneg i32 %switch.tableidx to i64
  %switch.gep126 = getelementptr inbounds nuw [8 x i32], ptr @switch.table.SDL_GetMasksForPixelFormat_REAL.3, i64 0, i64 %30
  %switch.load127 = load i32, ptr %switch.gep126, align 4
  %31 = lshr i32 %0, 20
  %32 = and i32 %31, 15
  switch i32 %32, label %41 [
    i32 1, label %33
    i32 2, label %34
    i32 3, label %35
    i32 4, label %36
    i32 5, label %37
    i32 6, label %38
    i32 8, label %39
    i32 7, label %40
  ]

33:                                               ; preds = %switch.lookup
  store i32 %switch.load125, ptr %2, align 4
  store i32 %switch.load123, ptr %3, align 4
  store i32 %switch.load, ptr %4, align 4
  br label %43

34:                                               ; preds = %switch.lookup
  store i32 %switch.load127, ptr %2, align 4
  store i32 %switch.load125, ptr %3, align 4
  store i32 %switch.load123, ptr %4, align 4
  br label %43

35:                                               ; preds = %switch.lookup
  store i32 %switch.load127, ptr %5, align 4
  store i32 %switch.load125, ptr %2, align 4
  store i32 %switch.load123, ptr %3, align 4
  store i32 %switch.load, ptr %4, align 4
  br label %43

36:                                               ; preds = %switch.lookup
  store i32 %switch.load127, ptr %2, align 4
  store i32 %switch.load125, ptr %3, align 4
  store i32 %switch.load123, ptr %4, align 4
  store i32 %switch.load, ptr %5, align 4
  br label %43

37:                                               ; preds = %switch.lookup
  store i32 %switch.load125, ptr %4, align 4
  store i32 %switch.load123, ptr %3, align 4
  store i32 %switch.load, ptr %2, align 4
  br label %43

38:                                               ; preds = %switch.lookup
  store i32 %switch.load127, ptr %4, align 4
  store i32 %switch.load125, ptr %3, align 4
  store i32 %switch.load123, ptr %2, align 4
  br label %43

39:                                               ; preds = %switch.lookup
  store i32 %switch.load127, ptr %4, align 4
  store i32 %switch.load125, ptr %3, align 4
  store i32 %switch.load123, ptr %2, align 4
  store i32 %switch.load, ptr %5, align 4
  br label %43

40:                                               ; preds = %switch.lookup
  store i32 %switch.load127, ptr %5, align 4
  store i32 %switch.load125, ptr %4, align 4
  store i32 %switch.load123, ptr %3, align 4
  store i32 %switch.load, ptr %2, align 4
  br label %43

41:                                               ; preds = %switch.lookup
  %42 = tail call zeroext i1 (ptr, ...) @SDL_SetError_REAL(ptr noundef nonnull @.str.65) #15
  br label %43

43:                                               ; preds = %18, %33, %34, %35, %36, %37, %38, %39, %40, %41, %25, %17, %16, %9
  %.0 = phi i1 [ true, %9 ], [ true, %16 ], [ true, %17 ], [ %26, %25 ], [ %42, %41 ], [ true, %18 ], [ true, %40 ], [ true, %39 ], [ true, %38 ], [ true, %37 ], [ true, %36 ], [ true, %35 ], [ true, %34 ], [ true, %33 ]
  ret i1 %.0
}